target datalayout = "e-m:e-p270:32:32-p271:32:32-p272:64:64-i64:64-i128:128-f80:128-n8:16:32:64-S128"
target triple = "x86_64-pc-linux-gnu"

; Function Attrs: nounwind uwtable
define internal ptr @nal_find_startcode_internal(ptr noundef %0, ptr noundef %1) #0 {
  %3 = alloca ptr, align 8
  %4 = alloca ptr, align 8
  %5 = alloca ptr, align 8
  %6 = alloca ptr, align 8
  %7 = alloca i32, align 4
  %8 = alloca i32, align 4
  store ptr %0, ptr %4, align 8, !tbaa !4
  store ptr %1, ptr %5, align 8, !tbaa !4
  call void @llvm.lifetime.start.p0(i64 8, ptr %6) #5
  %9 = load ptr, ptr %4, align 8, !tbaa !4
  %10 = getelementptr inbounds i8, ptr %9, i64 4
  %11 = load ptr, ptr %4, align 8, !tbaa !4
  %12 = ptrtoint ptr %11 to i64
  %13 = and i64 %12, 3
  %14 = sub i64 0, %13
  %15 = getelementptr inbounds i8, ptr %10, i64 %14
  store ptr %15, ptr %6, align 8, !tbaa !4
  %16 = load ptr, ptr %5, align 8, !tbaa !4
  %17 = getelementptr inbounds i8, ptr %16, i64 -3
  store ptr %17, ptr %5, align 8, !tbaa !4
  br label %18

18:                                               ; preds = %49, %2
  %19 = load ptr, ptr %4, align 8, !tbaa !4
  %20 = load ptr, ptr %6, align 8, !tbaa !4
  %21 = icmp ult ptr %19, %20
  br i1 %21, label %22, label %26

22:                                               ; preds = %18
  %23 = load ptr, ptr %4, align 8, !tbaa !4
  %24 = load ptr, ptr %5, align 8, !tbaa !4
  %25 = icmp ult ptr %23, %24
  br label %26

26:                                               ; preds = %22, %18
  %27 = phi i1 [ false, %18 ], [ %25, %22 ]
  br i1 %27, label %28, label %52

28:                                               ; preds = %26
  %29 = load ptr, ptr %4, align 8, !tbaa !4
  %30 = getelementptr inbounds i8, ptr %29, i64 0
  %31 = load i8, ptr %30, align 1, !tbaa !9
  %32 = zext i8 %31 to i32
  %33 = icmp eq i32 %32, 0
  br i1 %33, label %34, label %48

34:                                               ; preds = %28
  %35 = load ptr, ptr %4, align 8, !tbaa !4
  %36 = getelementptr inbounds i8, ptr %35, i64 1
  %37 = load i8, ptr %36, align 1, !tbaa !9
  %38 = zext i8 %37 to i32
  %39 = icmp eq i32 %38, 0
  br i1 %39, label %40, label %48

40:                                               ; preds = %34
  %41 = load ptr, ptr %4, align 8, !tbaa !4
  %42 = getelementptr inbounds i8, ptr %41, i64 2
  %43 = load i8, ptr %42, align 1, !tbaa !9
  %44 = zext i8 %43 to i32
  %45 = icmp eq i32 %44, 1
  br i1 %45, label %46, label %48

46:                                               ; preds = %40
  %47 = load ptr, ptr %4, align 8, !tbaa !4
  store ptr %47, ptr %3, align 8
  store i32 1, ptr %7, align 4
  br label %184

48:                                               ; preds = %40, %34, %28
  br label %49

49:                                               ; preds = %48
  %50 = load ptr, ptr %4, align 8, !tbaa !4
  %51 = getelementptr inbounds nuw i8, ptr %50, i32 1
  store ptr %51, ptr %4, align 8, !tbaa !4
  br label %18, !llvm.loop !10

52:                                               ; preds = %26
  %53 = load ptr, ptr %5, align 8, !tbaa !4
  %54 = getelementptr inbounds i8, ptr %53, i64 -3
  store ptr %54, ptr %5, align 8, !tbaa !4
  br label %55

55:                                               ; preds = %147, %52
  %56 = load ptr, ptr %4, align 8, !tbaa !4
  %57 = load ptr, ptr %5, align 8, !tbaa !4
  %58 = icmp ult ptr %56, %57
  br i1 %58, label %59, label %150

59:                                               ; preds = %55
  call void @llvm.lifetime.start.p0(i64 4, ptr %8) #5
  %60 = load ptr, ptr %4, align 8, !tbaa !4
  %61 = load i32, ptr %60, align 4, !tbaa !12
  store i32 %61, ptr %8, align 4, !tbaa !12
  %62 = load i32, ptr %8, align 4, !tbaa !12
  %63 = sub i32 %62, 16843009
  %64 = load i32, ptr %8, align 4, !tbaa !12
  %65 = xor i32 %64, -1
  %66 = and i32 %63, %65
  %67 = and i32 %66, -2139062144
  %68 = icmp ne i32 %67, 0
  br i1 %68, label %69, label %143

69:                                               ; preds = %59
  %70 = load ptr, ptr %4, align 8, !tbaa !4
  %71 = getelementptr inbounds i8, ptr %70, i64 1
  %72 = load i8, ptr %71, align 1, !tbaa !9
  %73 = zext i8 %72 to i32
  %74 = icmp eq i32 %73, 0
  br i1 %74, label %75, label %105

75:                                               ; preds = %69
  %76 = load ptr, ptr %4, align 8, !tbaa !4
  %77 = getelementptr inbounds i8, ptr %76, i64 0
  %78 = load i8, ptr %77, align 1, !tbaa !9
  %79 = zext i8 %78 to i32
  %80 = icmp eq i32 %79, 0
  br i1 %80, label %81, label %89

81:                                               ; preds = %75
  %82 = load ptr, ptr %4, align 8, !tbaa !4
  %83 = getelementptr inbounds i8, ptr %82, i64 2
  %84 = load i8, ptr %83, align 1, !tbaa !9
  %85 = zext i8 %84 to i32
  %86 = icmp eq i32 %85, 1
  br i1 %86, label %87, label %89

87:                                               ; preds = %81
  %88 = load ptr, ptr %4, align 8, !tbaa !4
  store ptr %88, ptr %3, align 8
  store i32 1, ptr %7, align 4
  br label %144

89:                                               ; preds = %81, %75
  %90 = load ptr, ptr %4, align 8, !tbaa !4
  %91 = getelementptr inbounds i8, ptr %90, i64 2
  %92 = load i8, ptr %91, align 1, !tbaa !9
  %93 = zext i8 %92 to i32
  %94 = icmp eq i32 %93, 0
  br i1 %94, label %95, label %104

95:                                               ; preds = %89
  %96 = load ptr, ptr %4, align 8, !tbaa !4
  %97 = getelementptr inbounds i8, ptr %96, i64 3
  %98 = load i8, ptr %97, align 1, !tbaa !9
  %99 = zext i8 %98 to i32
  %100 = icmp eq i32 %99, 1
  br i1 %100, label %101, label %104

101:                                              ; preds = %95
  %102 = load ptr, ptr %4, align 8, !tbaa !4
  %103 = getelementptr inbounds i8, ptr %102, i64 1
  store ptr %103, ptr %3, align 8
  store i32 1, ptr %7, align 4
  br label %144

104:                                              ; preds = %95, %89
  br label %105

105:                                              ; preds = %104, %69
  %106 = load ptr, ptr %4, align 8, !tbaa !4
  %107 = getelementptr inbounds i8, ptr %106, i64 3
  %108 = load i8, ptr %107, align 1, !tbaa !9
  %109 = zext i8 %108 to i32
  %110 = icmp eq i32 %109, 0
  br i1 %110, label %111, label %142

111:                                              ; preds = %105
  %112 = load ptr, ptr %4, align 8, !tbaa !4
  %113 = getelementptr inbounds i8, ptr %112, i64 2
  %114 = load i8, ptr %113, align 1, !tbaa !9
  %115 = zext i8 %114 to i32
  %116 = icmp eq i32 %115, 0
  br i1 %116, label %117, label %126

117:                                              ; preds = %111
  %118 = load ptr, ptr %4, align 8, !tbaa !4
  %119 = getelementptr inbounds i8, ptr %118, i64 4
  %120 = load i8, ptr %119, align 1, !tbaa !9
  %121 = zext i8 %120 to i32
  %122 = icmp eq i32 %121, 1
  br i1 %122, label %123, label %126

123:                                              ; preds = %117
  %124 = load ptr, ptr %4, align 8, !tbaa !4
  %125 = getelementptr inbounds i8, ptr %124, i64 2
  store ptr %125, ptr %3, align 8
  store i32 1, ptr %7, align 4
  br label %144

126:                                              ; preds = %117, %111
  %127 = load ptr, ptr %4, align 8, !tbaa !4
  %128 = getelementptr inbounds i8, ptr %127, i64 4
  %129 = load i8, ptr %128, align 1, !tbaa !9
  %130 = zext i8 %129 to i32
  %131 = icmp eq i32 %130, 0
  br i1 %131, label %132, label %141

132:                                              ; preds = %126
  %133 = load ptr, ptr %4, align 8, !tbaa !4
  %134 = getelementptr inbounds i8, ptr %133, i64 5
  %135 = load i8, ptr %134, align 1, !tbaa !9
  %136 = zext i8 %135 to i32
  %137 = icmp eq i32 %136, 1
  br i1 %137, label %138, label %141

138:                                              ; preds = %132
  %139 = load ptr, ptr %4, align 8, !tbaa !4
  %140 = getelementptr inbounds i8, ptr %139, i64 3
  store ptr %140, ptr %3, align 8
  store i32 1, ptr %7, align 4
  br label %144

141:                                              ; preds = %132, %126
  br label %142

142:                                              ; preds = %141, %105
  br label %143

143:                                              ; preds = %142, %59
  store i32 0, ptr %7, align 4
  br label %144

144:                                              ; preds = %143, %138, %123, %101, %87
  call void @llvm.lifetime.end.p0(i64 4, ptr %8) #5
  %145 = load i32, ptr %7, align 4
  switch i32 %145, label %184 [
    i32 0, label %146
  ]

146:                                              ; preds = %144
  br label %147

147:                                              ; preds = %146
  %148 = load ptr, ptr %4, align 8, !tbaa !4
  %149 = getelementptr inbounds i8, ptr %148, i64 4
  store ptr %149, ptr %4, align 8, !tbaa !4
  br label %55, !llvm.loop !14

150:                                              ; preds = %55
  %151 = load ptr, ptr %5, align 8, !tbaa !4
  %152 = getelementptr inbounds i8, ptr %151, i64 3
  store ptr %152, ptr %5, align 8, !tbaa !4
  br label %153

153:                                              ; preds = %178, %150
  %154 = load ptr, ptr %4, align 8, !tbaa !4
  %155 = load ptr, ptr %5, align 8, !tbaa !4
  %156 = icmp ult ptr %154, %155
  br i1 %156, label %157, label %181

157:                                              ; preds = %153
  %158 = load ptr, ptr %4, align 8, !tbaa !4
  %159 = getelementptr inbounds i8, ptr %158, i64 0
  %160 = load i8, ptr %159, align 1, !tbaa !9
  %161 = zext i8 %160 to i32
  %162 = icmp eq i32 %161, 0
  br i1 %162, label %163, label %177

163:                                              ; preds = %157
  %164 = load ptr, ptr %4, align 8, !tbaa !4
  %165 = getelementptr inbounds i8, ptr %164, i64 1
  %166 = load i8, ptr %165, align 1, !tbaa !9
  %167 = zext i8 %166 to i32
  %168 = icmp eq i32 %167, 0
  br i1 %168, label %169, label %177

169:                                              ; preds = %163
  %170 = load ptr, ptr %4, align 8, !tbaa !4
  %171 = getelementptr inbounds i8, ptr %170, i64 2
  %172 = load i8, ptr %171, align 1, !tbaa !9
  %173 = zext i8 %172 to i32
  %174 = icmp eq i32 %173, 1
  br i1 %174, label %175, label %177

175:                                              ; preds = %169
  %176 = load ptr, ptr %4, align 8, !tbaa !4
  store ptr %176, ptr %3, align 8
  store i32 1, ptr %7, align 4
  br label %184

177:                                              ; preds = %169, %163, %157
  br label %178

178:                                              ; preds = %177
  %179 = load ptr, ptr %4, align 8, !tbaa !4
  %180 = getelementptr inbounds nuw i8, ptr %179, i32 1
  store ptr %180, ptr %4, align 8, !tbaa !4
  br label %153, !llvm.loop !15

181:                                              ; preds = %153
  %182 = load ptr, ptr %5, align 8, !tbaa !4
  %183 = getelementptr inbounds i8, ptr %182, i64 3
  store ptr %183, ptr %3, align 8
  store i32 1, ptr %7, align 4
  br label %184

184:                                              ; preds = %181, %175, %144, %46
  call void @llvm.lifetime.end.p0(i64 8, ptr %6) #5
  %185 = load ptr, ptr %3, align 8
  ret ptr %185
}

; Function Attrs: nounwind uwtable
define ptr @ff_nal_find_startcode(ptr noundef %0, ptr noundef %1) #0 {
  %3 = alloca ptr, align 8
  %4 = alloca ptr, align 8
  %5 = alloca ptr, align 8
  store ptr %0, ptr %3, align 8, !tbaa !4
  store ptr %1, ptr %4, align 8, !tbaa !4
  call void @llvm.lifetime.start.p0(i64 8, ptr %5) #5
  %6 = load ptr, ptr %3, align 8, !tbaa !4
  %7 = load ptr, ptr %4, align 8, !tbaa !4
  %8 = call ptr @nal_find_startcode_internal(ptr noundef %6, ptr noundef %7)
  store ptr %8, ptr %5, align 8, !tbaa !4
  %9 = load ptr, ptr %3, align 8, !tbaa !4
  %10 = load ptr, ptr %5, align 8, !tbaa !4
  %11 = icmp ult ptr %9, %10
  br i1 %11, label %12, label %24

12:                                               ; preds = %2
  %13 = load ptr, ptr %5, align 8, !tbaa !4
  %14 = load ptr, ptr %4, align 8, !tbaa !4
  %15 = icmp ult ptr %13, %14
  br i1 %15, label %16, label %24

16:                                               ; preds = %12
  %17 = load ptr, ptr %5, align 8, !tbaa !4
  %18 = getelementptr inbounds i8, ptr %17, i64 -1
  %19 = load i8, ptr %18, align 1, !tbaa !9
  %20 = icmp ne i8 %19, 0
  br i1 %20, label %24, label %21

21:                                               ; preds = %16
  %22 = load ptr, ptr %5, align 8, !tbaa !4
  %23 = getelementptr inbounds i8, ptr %22, i32 -1
  store ptr %23, ptr %5, align 8, !tbaa !4
  br label %24

24:                                               ; preds = %21, %16, %12, %2
  %25 = load ptr, ptr %5, align 8, !tbaa !4
  call void @llvm.lifetime.end.p0(i64 8, ptr %5) #5
  ret ptr %25
}