; Function Attrs: nofree norecurse nosync nounwind memory(read, inaccessiblemem: none) uwtable
define ptr @ff_nal_find_startcode(ptr noundef %0, ptr noundef %1) local_unnamed_addr #0 {
  %3 = ptrtoint ptr %1 to i64
  %4 = getelementptr inbounds nuw i8, ptr %0, i64 4
  %5 = ptrtoint ptr %0 to i64
  %6 = and i64 %5, 3
  %7 = sub nsw i64 0, %6
  %8 = getelementptr inbounds i8, ptr %4, i64 %7
  %9 = getelementptr inbounds i8, ptr %1, i64 -3
  %10 = icmp ult ptr %0, %8
  %11 = icmp ult ptr %0, %9
  %12 = select i1 %10, i1 %11, i1 false
  br i1 %12, label %.lr.ph.i, label %._crit_edge.i

.lr.ph.i:                                         ; preds = %2, %23
  %.04456.i = phi ptr [ %24, %23 ], [ %0, %2 ]
  %13 = load i8, ptr %.04456.i, align 1, !tbaa !4
  %14 = icmp eq i8 %13, 0
  br i1 %14, label %15, label %23

15:                                               ; preds = %.lr.ph.i
  %16 = getelementptr inbounds nuw i8, ptr %.04456.i, i64 1
  %17 = load i8, ptr %16, align 1, !tbaa !4
  %18 = icmp eq i8 %17, 0
  br i1 %18, label %19, label %23

19:                                               ; preds = %15
  %20 = getelementptr inbounds nuw i8, ptr %.04456.i, i64 2
  %21 = load i8, ptr %20, align 1, !tbaa !4
  %22 = icmp eq i8 %21, 1
  br i1 %22, label %nal_find_startcode_internal.exit, label %23

23:                                               ; preds = %19, %15, %.lr.ph.i
  %24 = getelementptr inbounds nuw i8, ptr %.04456.i, i64 1
  %25 = icmp ult ptr %24, %8
  %26 = icmp ult ptr %24, %9
  %27 = select i1 %25, i1 %26, i1 false
  br i1 %27, label %.lr.ph.i, label %._crit_edge.i, !llvm.loop !7

._crit_edge.i:                                    ; preds = %23, %2
  %.044.lcssa.i = phi ptr [ %0, %2 ], [ %24, %23 ]
  %28 = getelementptr inbounds i8, ptr %1, i64 -6
  %29 = icmp ult ptr %.044.lcssa.i, %28
  br i1 %29, label %.lr.ph68.i, label %.preheader.i

.preheader.i:                                     ; preds = %70, %._crit_edge.i
  %.145.lcssa.i = phi ptr [ %.044.lcssa.i, %._crit_edge.i ], [ %71, %70 ]
  %30 = icmp ult ptr %.145.lcssa.i, %9
  br i1 %30, label %.lr.ph71.preheader.i, label %nal_find_startcode_internal.exit.thread

.lr.ph71.preheader.i:                             ; preds = %.preheader.i
  %.145.lcssa83.i = ptrtoint ptr %.145.lcssa.i to i64
  %31 = add i64 %3, -3
  %32 = sub i64 %31, %.145.lcssa83.i
  %scevgep.i = getelementptr i8, ptr %.145.lcssa.i, i64 %32
  br label %.lr.ph71.i

.lr.ph68.i:                                       ; preds = %._crit_edge.i, %70
  %.14566.i = phi ptr [ %71, %70 ], [ %.044.lcssa.i, %._crit_edge.i ]
  %33 = load i32, ptr %.14566.i, align 4
  %34 = sub i32 16843008, %33
  %35 = or i32 %34, %33
  %36 = and i32 %35, -2139062144
  %.not.i = icmp eq i32 %36, -2139062144
  %37 = lshr i32 %33, 16
  %38 = trunc i32 %37 to i8
  br i1 %.not.i, label %70, label %39

39:                                               ; preds = %.lr.ph68.i
  %40 = and i32 %33, 65280
  %41 = icmp eq i32 %40, 0
  br i1 %41, label %42, label %50

42:                                               ; preds = %39
  %43 = and i32 %33, 255
  %44 = icmp eq i32 %43, 0
  %45 = icmp eq i8 %38, 1
  %or.cond.i = and i1 %44, %45
  br i1 %or.cond.i, label %nal_find_startcode_internal.exit, label %46

46:                                               ; preds = %42
  %47 = icmp eq i8 %38, 0
  br i1 %47, label %48, label %50

48:                                               ; preds = %46
  %.mask.i = and i32 %33, -16777216
  %49 = icmp eq i32 %.mask.i, 16777216
  br i1 %49, label %.thread.loopexit87.split.loop.exit.i, label %.thread85.i

50:                                               ; preds = %46, %39
  %51 = getelementptr inbounds nuw i8, ptr %.14566.i, i64 3
  %52 = icmp ult i32 %33, 16777216
  br i1 %52, label %55, label %70

.thread85.i:                                      ; preds = %48
  %53 = icmp ult i32 %33, 16777216
  br i1 %53, label %.thread86.i, label %70

.thread86.i:                                      ; preds = %.thread85.i
  %54 = getelementptr inbounds nuw i8, ptr %.14566.i, i64 3
  br label %57

55:                                               ; preds = %50
  %56 = icmp eq i8 %38, 0
  br i1 %56, label %57, label %._crit_edge84.i

._crit_edge84.i:                                  ; preds = %55
  %.phi.trans.insert.i = getelementptr inbounds nuw i8, ptr %.14566.i, i64 4
  %.pre.i = load i8, ptr %.phi.trans.insert.i, align 1, !tbaa !4
  br label %62

57:                                               ; preds = %55, %.thread86.i
  %58 = phi ptr [ %54, %.thread86.i ], [ %51, %55 ]
  %59 = getelementptr inbounds nuw i8, ptr %.14566.i, i64 4
  %60 = load i8, ptr %59, align 1, !tbaa !4
  %61 = icmp eq i8 %60, 1
  br i1 %61, label %nal_find_startcode_internal.exit.loopexit12.split.loop.exit19, label %62

62:                                               ; preds = %57, %._crit_edge84.i
  %63 = phi ptr [ %51, %._crit_edge84.i ], [ %58, %57 ]
  %64 = phi i8 [ %.pre.i, %._crit_edge84.i ], [ %60, %57 ]
  %65 = icmp eq i8 %64, 0
  br i1 %65, label %66, label %70

66:                                               ; preds = %62
  %67 = getelementptr inbounds nuw i8, ptr %.14566.i, i64 5
  %68 = load i8, ptr %67, align 1, !tbaa !4
  %69 = icmp eq i8 %68, 1
  br i1 %69, label %nal_find_startcode_internal.exit, label %70

70:                                               ; preds = %66, %62, %.thread85.i, %50, %.lr.ph68.i
  %71 = getelementptr inbounds nuw i8, ptr %.14566.i, i64 4
  %72 = icmp ult ptr %71, %28
  br i1 %72, label %.lr.ph68.i, label %.preheader.i, !llvm.loop !9

.lr.ph71.i:                                       ; preds = %83, %.lr.ph71.preheader.i
  %.24670.i = phi ptr [ %84, %83 ], [ %.145.lcssa.i, %.lr.ph71.preheader.i ]
  %73 = load i8, ptr %.24670.i, align 1, !tbaa !4
  %74 = icmp eq i8 %73, 0
  br i1 %74, label %75, label %83

75:                                               ; preds = %.lr.ph71.i
  %76 = getelementptr inbounds nuw i8, ptr %.24670.i, i64 1
  %77 = load i8, ptr %76, align 1, !tbaa !4
  %78 = icmp eq i8 %77, 0
  br i1 %78, label %79, label %83

79:                                               ; preds = %75
  %80 = getelementptr inbounds nuw i8, ptr %.24670.i, i64 2
  %81 = load i8, ptr %80, align 1, !tbaa !4
  %82 = icmp eq i8 %81, 1
  br i1 %82, label %nal_find_startcode_internal.exit, label %83

83:                                               ; preds = %79, %75, %.lr.ph71.i
  %84 = getelementptr inbounds nuw i8, ptr %.24670.i, i64 1
  %exitcond.not.i = icmp eq ptr %84, %scevgep.i
  br i1 %exitcond.not.i, label %nal_find_startcode_internal.exit.thread, label %.lr.ph71.i, !llvm.loop !10

.thread.loopexit87.split.loop.exit.i:             ; preds = %48
  %85 = getelementptr inbounds nuw i8, ptr %.14566.i, i64 1
  br label %nal_find_startcode_internal.exit

nal_find_startcode_internal.exit.loopexit12.split.loop.exit19: ; preds = %57
  %86 = getelementptr inbounds nuw i8, ptr %.14566.i, i64 2
  br label %nal_find_startcode_internal.exit

nal_find_startcode_internal.exit:                 ; preds = %19, %66, %42, %79, %nal_find_startcode_internal.exit.loopexit12.split.loop.exit19, %.thread.loopexit87.split.loop.exit.i
  %.0.i = phi ptr [ %85, %.thread.loopexit87.split.loop.exit.i ], [ %86, %nal_find_startcode_internal.exit.loopexit12.split.loop.exit19 ], [ %.24670.i, %79 ], [ %63, %66 ], [ %.14566.i, %42 ], [ %.04456.i, %19 ]
  %87 = icmp ult ptr %0, %.0.i
  %88 = icmp ult ptr %.0.i, %1
  %or.cond = and i1 %87, %88
  br i1 %or.cond, label %89, label %nal_find_startcode_internal.exit.thread

89:                                               ; preds = %nal_find_startcode_internal.exit
  %90 = getelementptr inbounds i8, ptr %.0.i, i64 -1
  %91 = load i8, ptr %90, align 1, !tbaa !4
  %.not = icmp eq i8 %91, 0
  %spec.select = select i1 %.not, ptr %90, ptr %.0.i
  br label %nal_find_startcode_internal.exit.thread

nal_find_startcode_internal.exit.thread:          ; preds = %83, %.preheader.i, %89, %nal_find_startcode_internal.exit
  %.0 = phi ptr [ %.0.i, %nal_find_startcode_internal.exit ], [ %spec.select, %89 ], [ %1, %.preheader.i ], [ %1, %83 ]
  ret ptr %.0
}